; Function Attrs: mustprogress nounwind uwtable
define hidden void @_ZN6hermes11PassManager3runEPNS_8FunctionE(ptr nocapture noundef nonnull readonly align 8 dereferenceable(32) %this, ptr noundef %F) local_unnamed_addr #1 align 2 {
entry:
  %lazySource_.i = getelementptr inbounds i8, ptr %F, i64 248
  %0 = load i32, ptr %lazySource_.i, align 8
  %cmp.i.not = icmp eq i32 %0, 0
  br i1 %cmp.i.not, label %if.end, label %for.end

if.end:                                           ; preds = %entry
  %pipeline_ = getelementptr inbounds i8, ptr %this, i64 8
  %1 = load ptr, ptr %pipeline_, align 8
  %_M_finish.i = getelementptr inbounds i8, ptr %this, i64 16
  %2 = load ptr, ptr %_M_finish.i, align 8
  %cmp.i3.not6 = icmp eq ptr %1, %2
  br i1 %cmp.i3.not6, label %for.end, label %for.body

for.body:                                         ; preds = %if.end, %for.body
  %__begin1.sroa.0.07 = phi ptr [ %incdec.ptr.i, %for.body ], [ %1, %if.end ]
  %3 = load ptr, ptr %__begin1.sroa.0.07, align 8
  %kind.i.i.i.i.i.i.i.i = getelementptr inbounds i8, ptr %3, i64 8
  %4 = load i32, ptr %kind.i.i.i.i.i.i.i.i, align 8
  %cmp.i.i.i.i.i.i.i = icmp eq i32 %4, 0
  %spec.select.i = select i1 %cmp.i.i.i.i.i.i.i, ptr %3, ptr null
  %vtable = load ptr, ptr %spec.select.i, align 8
  %vfn = getelementptr inbounds i8, ptr %vtable, i64 16
  %5 = load ptr, ptr %vfn, align 8
  %call11 = tail call noundef zeroext i1 %5(ptr noundef nonnull align 8 dereferenceable(32) %spec.select.i, ptr noundef nonnull %F) #14
  %incdec.ptr.i = getelementptr inbounds i8, ptr %__begin1.sroa.0.07, i64 8
  %cmp.i3.not = icmp eq ptr %incdec.ptr.i, %2
  br i1 %cmp.i3.not, label %for.end, label %for.body

for.end:                                          ; preds = %for.body, %if.end, %entry
  ret void
}